target datalayout = "e-m:e-p270:32:32-p271:32:32-p272:64:64-i64:64-i128:128-f80:128-n8:16:32:64-S128"
target triple = "x86_64-pc-linux-gnu"

%struct.UriMemoryManagerStruct = type { ptr, ptr, ptr, ptr, ptr, ptr }
%struct.UriParserStateStructW = type { ptr, i32, ptr, ptr }
%struct.UriUriStructW = type { %struct.UriTextRangeStructW, %struct.UriTextRangeStructW, %struct.UriTextRangeStructW, %struct.UriHostDataStructW, %struct.UriTextRangeStructW, ptr, ptr, %struct.UriTextRangeStructW, %struct.UriTextRangeStructW, i32, i32, ptr }
%struct.UriHostDataStructW = type { ptr, ptr, %struct.UriTextRangeStructW }
%struct.UriTextRangeStructW = type { ptr, ptr }

; Function Attrs: inlinehint nounwind uwtable
define internal void @uriStopMallocW(ptr noundef %0, ptr noundef %1) #4 {
  %3 = alloca ptr, align 8
  %4 = alloca ptr, align 8
  store ptr %0, ptr %3, align 8, !tbaa !59
  store ptr %1, ptr %4, align 8, !tbaa !10
  %5 = load ptr, ptr %3, align 8, !tbaa !59
  %6 = getelementptr inbounds nuw %struct.UriParserStateStructW, ptr %5, i32 0, i32 0
  %7 = load ptr, ptr %6, align 8, !tbaa !63
  %8 = load ptr, ptr %4, align 8, !tbaa !10
  %9 = call i32 @uriFreeUriMembersMmW(ptr noundef %7, ptr noundef %8)
  %10 = load ptr, ptr %3, align 8, !tbaa !59
  %11 = getelementptr inbounds nuw %struct.UriParserStateStructW, ptr %10, i32 0, i32 2
  store ptr null, ptr %11, align 8, !tbaa !67
  %12 = load ptr, ptr %3, align 8, !tbaa !59
  %13 = getelementptr inbounds nuw %struct.UriParserStateStructW, ptr %12, i32 0, i32 1
  store i32 3, ptr %13, align 8, !tbaa !68
  ret void
}

; Function Attrs: inlinehint nounwind uwtable
define internal void @uriStopSyntaxW(ptr noundef %0, ptr noundef %1, ptr noundef %2) #4 {
  %4 = alloca ptr, align 8
  %5 = alloca ptr, align 8
  %6 = alloca ptr, align 8
  store ptr %0, ptr %4, align 8, !tbaa !59
  store ptr %1, ptr %5, align 8, !tbaa !61
  store ptr %2, ptr %6, align 8, !tbaa !10
  %7 = load ptr, ptr %4, align 8, !tbaa !59
  %8 = getelementptr inbounds nuw %struct.UriParserStateStructW, ptr %7, i32 0, i32 0
  %9 = load ptr, ptr %8, align 8, !tbaa !63
  %10 = load ptr, ptr %6, align 8, !tbaa !10
  %11 = call i32 @uriFreeUriMembersMmW(ptr noundef %9, ptr noundef %10)
  %12 = load ptr, ptr %5, align 8, !tbaa !61
  %13 = load ptr, ptr %4, align 8, !tbaa !59
  %14 = getelementptr inbounds nuw %struct.UriParserStateStructW, ptr %13, i32 0, i32 2
  store ptr %12, ptr %14, align 8, !tbaa !67
  %15 = load ptr, ptr %4, align 8, !tbaa !59
  %16 = getelementptr inbounds nuw %struct.UriParserStateStructW, ptr %15, i32 0, i32 1
  store i32 1, ptr %16, align 8, !tbaa !68
  ret void
}

; Function Attrs: inlinehint nounwind uwtable
define internal ptr @uriParseIpLit2W(ptr noundef %0, ptr noundef %1, ptr noundef %2, ptr noundef %3) #4 {
  %5 = alloca ptr, align 8
  %6 = alloca ptr, align 8
  %7 = alloca ptr, align 8
  %8 = alloca ptr, align 8
  %9 = alloca ptr, align 8
  %10 = alloca ptr, align 8
  %11 = alloca i32, align 4
  store ptr %0, ptr %6, align 8, !tbaa !59
  store ptr %1, ptr %7, align 8, !tbaa !61
  store ptr %2, ptr %8, align 8, !tbaa !61
  store ptr %3, ptr %9, align 8, !tbaa !10
  %12 = load ptr, ptr %7, align 8, !tbaa !61
  %13 = load ptr, ptr %8, align 8, !tbaa !61
  %14 = icmp uge ptr %12, %13
  br i1 %14, label %15, label %19

15:                                               ; preds = %4
  %16 = load ptr, ptr %6, align 8, !tbaa !59
  %17 = load ptr, ptr %8, align 8, !tbaa !61
  %18 = load ptr, ptr %9, align 8, !tbaa !10
  call void @uriStopSyntaxW(ptr noundef %16, ptr noundef %17, ptr noundef %18)
  store ptr null, ptr %5, align 8
  br label %82

19:                                               ; preds = %4
  %20 = load ptr, ptr %7, align 8, !tbaa !61
  %21 = load i32, ptr %20, align 4, !tbaa !21
  switch i32 %21, label %78 [
    i32 118, label %22
    i32 58, label %51
    i32 93, label %51
    i32 48, label %51
    i32 49, label %51
    i32 50, label %51
    i32 51, label %51
    i32 52, label %51
    i32 53, label %51
    i32 54, label %51
    i32 55, label %51
    i32 56, label %51
    i32 57, label %51
    i32 65, label %51
    i32 66, label %51
    i32 67, label %51
    i32 68, label %51
    i32 69, label %51
    i32 70, label %51
    i32 97, label %51
    i32 98, label %51
    i32 99, label %51
    i32 100, label %51
    i32 101, label %51
    i32 102, label %51
  ]

22:                                               ; preds = %19
  call void @llvm.lifetime.start.p0(i64 8, ptr %10) #7
  %23 = load ptr, ptr %6, align 8, !tbaa !59
  %24 = load ptr, ptr %7, align 8, !tbaa !61
  %25 = load ptr, ptr %8, align 8, !tbaa !61
  %26 = load ptr, ptr %9, align 8, !tbaa !10
  %27 = call ptr @uriParseIpFutureW(ptr noundef %23, ptr noundef %24, ptr noundef %25, ptr noundef %26)
  store ptr %27, ptr %10, align 8, !tbaa !61
  %28 = load ptr, ptr %10, align 8, !tbaa !61
  %29 = icmp eq ptr %28, null
  br i1 %29, label %30, label %31

30:                                               ; preds = %22
  store ptr null, ptr %5, align 8
  store i32 1, ptr %11, align 4
  br label %50

31:                                               ; preds = %22
  %32 = load ptr, ptr %10, align 8, !tbaa !61
  %33 = load ptr, ptr %8, align 8, !tbaa !61
  %34 = icmp uge ptr %32, %33
  br i1 %34, label %35, label %39

35:                                               ; preds = %31
  %36 = load ptr, ptr %6, align 8, !tbaa !59
  %37 = load ptr, ptr %8, align 8, !tbaa !61
  %38 = load ptr, ptr %9, align 8, !tbaa !10
  call void @uriStopSyntaxW(ptr noundef %36, ptr noundef %37, ptr noundef %38)
  store ptr null, ptr %5, align 8
  store i32 1, ptr %11, align 4
  br label %50

39:                                               ; preds = %31
  %40 = load ptr, ptr %10, align 8, !tbaa !61
  %41 = load i32, ptr %40, align 4, !tbaa !21
  %42 = icmp ne i32 %41, 93
  br i1 %42, label %43, label %47

43:                                               ; preds = %39
  %44 = load ptr, ptr %6, align 8, !tbaa !59
  %45 = load ptr, ptr %10, align 8, !tbaa !61
  %46 = load ptr, ptr %9, align 8, !tbaa !10
  call void @uriStopSyntaxW(ptr noundef %44, ptr noundef %45, ptr noundef %46)
  store ptr null, ptr %5, align 8
  store i32 1, ptr %11, align 4
  br label %50

47:                                               ; preds = %39
  %48 = load ptr, ptr %10, align 8, !tbaa !61
  %49 = getelementptr inbounds i32, ptr %48, i64 1
  store ptr %49, ptr %5, align 8
  store i32 1, ptr %11, align 4
  br label %50

50:                                               ; preds = %47, %43, %35, %30
  call void @llvm.lifetime.end.p0(i64 8, ptr %10) #7
  br label %82

51:                                               ; preds = %19, %19, %19, %19, %19, %19, %19, %19, %19, %19, %19, %19, %19, %19, %19, %19, %19, %19, %19, %19, %19, %19, %19, %19
  %52 = load ptr, ptr %9, align 8, !tbaa !10
  %53 = getelementptr inbounds nuw %struct.UriMemoryManagerStruct, ptr %52, i32 0, i32 0
  %54 = load ptr, ptr %53, align 8, !tbaa !56
  %55 = load ptr, ptr %9, align 8, !tbaa !10
  %56 = call ptr %54(ptr noundef %55, i64 noundef 16)
  %57 = load ptr, ptr %6, align 8, !tbaa !59
  %58 = getelementptr inbounds nuw %struct.UriParserStateStructW, ptr %57, i32 0, i32 0
  %59 = load ptr, ptr %58, align 8, !tbaa !63
  %60 = getelementptr inbounds nuw %struct.UriUriStructW, ptr %59, i32 0, i32 3
  %61 = getelementptr inbounds nuw %struct.UriHostDataStructW, ptr %60, i32 0, i32 1
  store ptr %56, ptr %61, align 8, !tbaa !85
  %62 = load ptr, ptr %6, align 8, !tbaa !59
  %63 = getelementptr inbounds nuw %struct.UriParserStateStructW, ptr %62, i32 0, i32 0
  %64 = load ptr, ptr %63, align 8, !tbaa !63
  %65 = getelementptr inbounds nuw %struct.UriUriStructW, ptr %64, i32 0, i32 3
  %66 = getelementptr inbounds nuw %struct.UriHostDataStructW, ptr %65, i32 0, i32 1
  %67 = load ptr, ptr %66, align 8, !tbaa !85
  %68 = icmp eq ptr %67, null
  br i1 %68, label %69, label %72

69:                                               ; preds = %51
  %70 = load ptr, ptr %6, align 8, !tbaa !59
  %71 = load ptr, ptr %9, align 8, !tbaa !10
  call void @uriStopMallocW(ptr noundef %70, ptr noundef %71)
  store ptr null, ptr %5, align 8
  br label %82

72:                                               ; preds = %51
  %73 = load ptr, ptr %6, align 8, !tbaa !59
  %74 = load ptr, ptr %7, align 8, !tbaa !61
  %75 = load ptr, ptr %8, align 8, !tbaa !61
  %76 = load ptr, ptr %9, align 8, !tbaa !10
  %77 = call ptr @uriParseIPv6address2W(ptr noundef %73, ptr noundef %74, ptr noundef %75, ptr noundef %76)
  store ptr %77, ptr %5, align 8
  br label %82

78:                                               ; preds = %19
  %79 = load ptr, ptr %6, align 8, !tbaa !59
  %80 = load ptr, ptr %7, align 8, !tbaa !61
  %81 = load ptr, ptr %9, align 8, !tbaa !10
  call void @uriStopSyntaxW(ptr noundef %79, ptr noundef %80, ptr noundef %81)
  store ptr null, ptr %5, align 8
  br label %82

82:                                               ; preds = %78, %72, %69, %50, %15
  %83 = load ptr, ptr %5, align 8
  ret ptr %83
}