; Function Attrs: inlinehint nounwind uwtable
define internal fastcc ptr @uriParseIpLit2W(ptr noundef nonnull %0, ptr noundef nonnull %1, ptr noundef nonnull %2, ptr noundef %3) unnamed_addr #4 {
  %.not = icmp ult ptr %1, %2
  br i1 %.not, label %10, label %5

5:                                                ; preds = %4
  %6 = load ptr, ptr %0, align 8, !tbaa !51
  %7 = tail call i32 @uriFreeUriMembersMmW(ptr noundef %6, ptr noundef %3)
  %8 = getelementptr inbounds nuw i8, ptr %0, i64 16
  store ptr %2, ptr %8, align 8, !tbaa !68
  %9 = getelementptr inbounds nuw i8, ptr %0, i64 8
  store i32 1, ptr %9, align 8, !tbaa !69
  br label %47

10:                                               ; preds = %4
  %11 = load i32, ptr %1, align 4, !tbaa !55
  switch i32 %11, label %42 [
    i32 118, label %12
    i32 58, label %30
    i32 93, label %30
    i32 48, label %30
    i32 49, label %30
    i32 50, label %30
    i32 51, label %30
    i32 52, label %30
    i32 53, label %30
    i32 54, label %30
    i32 55, label %30
    i32 56, label %30
    i32 57, label %30
    i32 65, label %30
    i32 66, label %30
    i32 67, label %30
    i32 68, label %30
    i32 69, label %30
    i32 70, label %30
    i32 97, label %30
    i32 98, label %30
    i32 99, label %30
    i32 100, label %30
    i32 101, label %30
    i32 102, label %30
  ]

12:                                               ; preds = %10
  %13 = tail call fastcc ptr @uriParseIpFutureW(ptr noundef %0, ptr noundef %1, ptr noundef %2, ptr noundef %3)
  %14 = icmp eq ptr %13, null
  br i1 %14, label %47, label %15

15:                                               ; preds = %12
  %.not39 = icmp ult ptr %13, %2
  br i1 %.not39, label %21, label %16

16:                                               ; preds = %15
  %17 = load ptr, ptr %0, align 8, !tbaa !51
  %18 = tail call i32 @uriFreeUriMembersMmW(ptr noundef %17, ptr noundef %3)
  %19 = getelementptr inbounds nuw i8, ptr %0, i64 16
  store ptr %2, ptr %19, align 8, !tbaa !68
  %20 = getelementptr inbounds nuw i8, ptr %0, i64 8
  store i32 1, ptr %20, align 8, !tbaa !69
  br label %47

21:                                               ; preds = %15
  %22 = load i32, ptr %13, align 4, !tbaa !55
  %.not40 = icmp eq i32 %22, 93
  br i1 %.not40, label %28, label %23

23:                                               ; preds = %21
  %24 = load ptr, ptr %0, align 8, !tbaa !51
  %25 = tail call i32 @uriFreeUriMembersMmW(ptr noundef %24, ptr noundef %3)
  %26 = getelementptr inbounds nuw i8, ptr %0, i64 16
  store ptr %13, ptr %26, align 8, !tbaa !68
  %27 = getelementptr inbounds nuw i8, ptr %0, i64 8
  store i32 1, ptr %27, align 8, !tbaa !69
  br label %47

28:                                               ; preds = %21
  %29 = getelementptr inbounds nuw i8, ptr %13, i64 4
  br label %47

30:                                               ; preds = %10, %10, %10, %10, %10, %10, %10, %10, %10, %10, %10, %10, %10, %10, %10, %10, %10, %10, %10, %10, %10, %10, %10, %10
  %31 = load ptr, ptr %3, align 8, !tbaa !49
  %32 = tail call ptr %31(ptr noundef nonnull %3, i64 noundef 16) #7
  %33 = load ptr, ptr %0, align 8, !tbaa !51
  %34 = getelementptr inbounds nuw i8, ptr %33, i64 56
  store ptr %32, ptr %34, align 8, !tbaa !78
  %35 = icmp eq ptr %32, null
  br i1 %35, label %36, label %40

36:                                               ; preds = %30
  %37 = tail call i32 @uriFreeUriMembersMmW(ptr noundef nonnull %33, ptr noundef nonnull %3)
  %38 = getelementptr inbounds nuw i8, ptr %0, i64 16
  store ptr null, ptr %38, align 8, !tbaa !68
  %39 = getelementptr inbounds nuw i8, ptr %0, i64 8
  store i32 3, ptr %39, align 8, !tbaa !69
  br label %47

40:                                               ; preds = %30
  %41 = tail call fastcc ptr @uriParseIPv6address2W(ptr noundef %0, ptr noundef nonnull %1, ptr noundef nonnull %2, ptr noundef nonnull %3)
  br label %47

42:                                               ; preds = %10
  %43 = load ptr, ptr %0, align 8, !tbaa !51
  %44 = tail call i32 @uriFreeUriMembersMmW(ptr noundef %43, ptr noundef %3)
  %45 = getelementptr inbounds nuw i8, ptr %0, i64 16
  store ptr %1, ptr %45, align 8, !tbaa !68
  %46 = getelementptr inbounds nuw i8, ptr %0, i64 8
  store i32 1, ptr %46, align 8, !tbaa !69
  br label %47

47:                                               ; preds = %16, %23, %28, %12, %42, %40, %36, %5
  %.0 = phi ptr [ null, %5 ], [ null, %42 ], [ null, %36 ], [ %41, %40 ], [ null, %16 ], [ null, %23 ], [ %29, %28 ], [ null, %12 ]
  ret ptr %.0
}